

Microchip Technology PIC LITE Macro Assembler V1.12 build 49521 
                                                                                               Thu Feb 21 18:38:58 2013

HI-TECH Software Omniscient Code Generator (Lite mode) build 49521
     1  0000                     opt subtitle "HI-TECH Software Omniscient Code Generator (Lite mode) build 49521"
     2                           opt subtitle "HI-TECH Software Omniscient Code Generator (Lite mode) build 49521"
     3                           
     4                           opt pagewidth 120
     5                           
     6                           	opt lm
     7                           
     8                           	processor	16F88
     9                           clrc	macro
    10  0000                     	endm
    11                           opt subtitle "HI-TECH Software Omniscient Code Generator (Lite mode) build 49521"
    12                           
    13  0000                     	endm
    14                           opt subtitle "HI-TECH Software Omniscient Code Generator (Lite mode) build 49521"
    15                           
    16  0000                     	endm
    17                           opt subtitle "HI-TECH Software Omniscient Code Generator (Lite mode) build 49521"
    18                           
    19  0000                     	endm
    20                           opt subtitle "HI-TECH Software Omniscient Code Generator (Lite mode) build 49521"
    21                           
    22  0000                     	endm
    23                           opt subtitle "HI-TECH Software Omniscient Code Generator (Lite mode) build 49521"
    24                           
    25  0000                     	endm
    26                           opt subtitle "HI-TECH Software Omniscient Code Generator (Lite mode) build 49521"
    27                           
    28  0000                     	endm
    29                           opt subtitle "HI-TECH Software Omniscient Code Generator (Lite mode) build 49521"
    30                           
    31  0000                     	endm
    32  0000                     indf	equ	0
    33  0000                     indf0	equ	0
    34  0002                     pc	equ	2
    35  0002                     pcl	equ	2
    36  0003                     status	equ	3
    37  0004                     fsr	equ	4
    38  0004                     fsr0	equ	4
    39  0001                     c	equ	1
    40  0000                     z	equ	0
    41  000A                     pclath	equ	10
    42                           opt subtitle "HI-TECH Software Omniscient Code Generator (Lite mode) build 49521"
    43  0000                     INDF equ 00h ;# 
    44                           opt subtitle "HI-TECH Software Omniscient Code Generator (Lite mode) build 49521"
    45  0001                     TMR0 equ 01h ;# 
    46                           opt subtitle "HI-TECH Software Omniscient Code Generator (Lite mode) build 49521"
    47  0002                     PCL equ 02h ;# 
    48                           opt subtitle "HI-TECH Software Omniscient Code Generator (Lite mode) build 49521"
    49  0003                     STATUS equ 03h ;# 
    50                           opt subtitle "HI-TECH Software Omniscient Code Generator (Lite mode) build 49521"
    51  0004                     FSR equ 04h ;# 
    52                           opt subtitle "HI-TECH Software Omniscient Code Generator (Lite mode) build 49521"
    53  0005                     PORTA equ 05h ;# 
    54                           opt subtitle "HI-TECH Software Omniscient Code Generator (Lite mode) build 49521"
    55  0006                     PORTB equ 06h ;# 
    56                           opt subtitle "HI-TECH Software Omniscient Code Generator (Lite mode) build 49521"
    57  000A                     PCLATH equ 0Ah ;# 
    58                           opt subtitle "HI-TECH Software Omniscient Code Generator (Lite mode) build 49521"
    59  000B                     INTCON equ 0Bh ;# 
    60                           opt subtitle "HI-TECH Software Omniscient Code Generator (Lite mode) build 49521"
    61  000C                     PIR1 equ 0Ch ;# 
    62                           opt subtitle "HI-TECH Software Omniscient Code Generator (Lite mode) build 49521"
    63  000D                     PIR2 equ 0Dh ;# 
    64                           opt subtitle "HI-TECH Software Omniscient Code Generator (Lite mode) build 49521"
    65  000E                     TMR1 equ 0Eh ;# 
    66                           opt subtitle "HI-TECH Software Omniscient Code Generator (Lite mode) build 49521"
    67  000E                     TMR1L equ 0Eh ;# 
    68                           opt subtitle "HI-TECH Software Omniscient Code Generator (Lite mode) build 49521"
    69  000F                     TMR1H equ 0Fh ;# 
    70                           opt subtitle "HI-TECH Software Omniscient Code Generator (Lite mode) build 49521"
    71  0010                     T1CON equ 010h ;# 
    72                           opt subtitle "HI-TECH Software Omniscient Code Generator (Lite mode) build 49521"
    73  0011                     TMR2 equ 011h ;# 
    74                           opt subtitle "HI-TECH Software Omniscient Code Generator (Lite mode) build 49521"
    75  0012                     T2CON equ 012h ;# 
    76                           opt subtitle "HI-TECH Software Omniscient Code Generator (Lite mode) build 49521"
    77  0013                     SSPBUF equ 013h ;# 
    78                           opt subtitle "HI-TECH Software Omniscient Code Generator (Lite mode) build 49521"
    79  0014                     SSPCON equ 014h ;# 
    80                           opt subtitle "HI-TECH Software Omniscient Code Generator (Lite mode) build 49521"
    81  0015                     CCPR1 equ 015h ;# 
    82                           opt subtitle "HI-TECH Software Omniscient Code Generator (Lite mode) build 49521"
    83  0015                     CCPR1L equ 015h ;# 
    84                           opt subtitle "HI-TECH Software Omniscient Code Generator (Lite mode) build 49521"
    85  0016                     CCPR1H equ 016h ;# 
    86                           opt subtitle "HI-TECH Software Omniscient Code Generator (Lite mode) build 49521"
    87  0017                     CCP1CON equ 017h ;# 
    88                           opt subtitle "HI-TECH Software Omniscient Code Generator (Lite mode) build 49521"
    89  0018                     RCSTA equ 018h ;# 
    90                           opt subtitle "HI-TECH Software Omniscient Code Generator (Lite mode) build 49521"
    91  0019                     TXREG equ 019h ;# 
    92                           opt subtitle "HI-TECH Software Omniscient Code Generator (Lite mode) build 49521"
    93  001A                     RCREG equ 01Ah ;# 
    94                           opt subtitle "HI-TECH Software Omniscient Code Generator (Lite mode) build 49521"
    95  001E                     ADRESH equ 01Eh ;# 
    96                           opt subtitle "HI-TECH Software Omniscient Code Generator (Lite mode) build 49521"
    97  001F                     ADCON0 equ 01Fh ;# 
    98                           opt subtitle "HI-TECH Software Omniscient Code Generator (Lite mode) build 49521"
    99  0081                     OPTION_REG equ 081h ;# 
   100                           opt subtitle "HI-TECH Software Omniscient Code Generator (Lite mode) build 49521"
   101  0085                     TRISA equ 085h ;# 
   102                           opt subtitle "HI-TECH Software Omniscient Code Generator (Lite mode) build 49521"
   103  0086                     TRISB equ 086h ;# 
   104                           opt subtitle "HI-TECH Software Omniscient Code Generator (Lite mode) build 49521"
   105  008C                     PIE1 equ 08Ch ;# 
   106                           opt subtitle "HI-TECH Software Omniscient Code Generator (Lite mode) build 49521"
   107  008D                     PIE2 equ 08Dh ;# 
   108                           opt subtitle "HI-TECH Software Omniscient Code Generator (Lite mode) build 49521"
   109  008E                     PCON equ 08Eh ;# 
   110                           opt subtitle "HI-TECH Software Omniscient Code Generator (Lite mode) build 49521"
   111  008F                     OSCCON equ 08Fh ;# 
   112                           opt subtitle "HI-TECH Software Omniscient Code Generator (Lite mode) build 49521"
   113  0090                     OSCTUNE equ 090h ;# 
   114                           opt subtitle "HI-TECH Software Omniscient Code Generator (Lite mode) build 49521"
   115  0092                     PR2 equ 092h ;# 
   116                           opt subtitle "HI-TECH Software Omniscient Code Generator (Lite mode) build 49521"
   117  0093                     SSPADD equ 093h ;# 
   118                           opt subtitle "HI-TECH Software Omniscient Code Generator (Lite mode) build 49521"
   119  0094                     SSPSTAT equ 094h ;# 
   120                           opt subtitle "HI-TECH Software Omniscient Code Generator (Lite mode) build 49521"
   121  0098                     TXSTA equ 098h ;# 
   122                           opt subtitle "HI-TECH Software Omniscient Code Generator (Lite mode) build 49521"
   123  0099                     SPBRG equ 099h ;# 
   124                           opt subtitle "HI-TECH Software Omniscient Code Generator (Lite mode) build 49521"
   125  009B                     ANSEL equ 09Bh ;# 
   126                           opt subtitle "HI-TECH Software Omniscient Code Generator (Lite mode) build 49521"
   127  009C                     CMCON equ 09Ch ;# 
   128                           opt subtitle "HI-TECH Software Omniscient Code Generator (Lite mode) build 49521"
   129  009D                     CVRCON equ 09Dh ;# 
   130                           opt subtitle "HI-TECH Software Omniscient Code Generator (Lite mode) build 49521"
   131  009E                     ADRESL equ 09Eh ;# 
   132                           opt subtitle "HI-TECH Software Omniscient Code Generator (Lite mode) build 49521"
   133  009F                     ADCON1 equ 09Fh ;# 
   134                           opt subtitle "HI-TECH Software Omniscient Code Generator (Lite mode) build 49521"
   135  0105                     WDTCON equ 0105h ;# 
   136                           opt subtitle "HI-TECH Software Omniscient Code Generator (Lite mode) build 49521"
   137  010C                     EEDATA equ 010Ch ;# 
   138                           opt subtitle "HI-TECH Software Omniscient Code Generator (Lite mode) build 49521"
   139  010D                     EEADR equ 010Dh ;# 
   140                           opt subtitle "HI-TECH Software Omniscient Code Generator (Lite mode) build 49521"
   141  010E                     EEDATH equ 010Eh ;# 
   142                           opt subtitle "HI-TECH Software Omniscient Code Generator (Lite mode) build 49521"
   143  010F                     EEADRH equ 010Fh ;# 
   144                           opt subtitle "HI-TECH Software Omniscient Code Generator (Lite mode) build 49521"
   145  018C                     EECON1 equ 018Ch ;# 
   146                           opt subtitle "HI-TECH Software Omniscient Code Generator (Lite mode) build 49521"
   147  018D                     EECON2 equ 018Dh ;# 
   148                           opt subtitle "HI-TECH Software Omniscient Code Generator (Lite mode) build 49521"
   149                           
   150                           opt pagewidth 120
   151  0028                     _RA0	set	0x28
   152                           opt subtitle "HI-TECH Software Omniscient Code Generator (Lite mode) build 49521"
   153  0029                     _RA1	set	0x29
   154                           opt subtitle "HI-TECH Software Omniscient Code Generator (Lite mode) build 49521"
   155  002A                     _RA2	set	0x2A
   156                           opt subtitle "HI-TECH Software Omniscient Code Generator (Lite mode) build 49521"
   157  002B                     _RA3	set	0x2B
   158                           opt subtitle "HI-TECH Software Omniscient Code Generator (Lite mode) build 49521"
   159  002C                     _RA4	set	0x2C
   160                           opt subtitle "HI-TECH Software Omniscient Code Generator (Lite mode) build 49521"
   161  002D                     _RA5	set	0x2D
   162                           opt subtitle "HI-TECH Software Omniscient Code Generator (Lite mode) build 49521"
   163  002E                     _RA6	set	0x2E
   164                           opt subtitle "HI-TECH Software Omniscient Code Generator (Lite mode) build 49521"
   165  009B                     _ANSEL	set	0x9B
   166                           opt subtitle "HI-TECH Software Omniscient Code Generator (Lite mode) build 49521"
   167  008F                     _OSCCON	set	0x8F
   168                           opt subtitle "HI-TECH Software Omniscient Code Generator (Lite mode) build 49521"
   169  0085                     _TRISA	set	0x85
   170                           opt subtitle "HI-TECH Software Omniscient Code Generator (Lite mode) build 49521"
   171  0086                     _TRISB	set	0x86
   172                           opt subtitle "HI-TECH Software Omniscient Code Generator (Lite mode) build 49521"
   173                           
   174  0000                     __ptext52:	;psect for function _init
   175                           opt subtitle "HI-TECH Software Omniscient Code Generator (Lite mode) build 49521"
   176                           
   177  0000                     __CFG_BOREN$OFF equ 0x0
   178                           opt subtitle "HI-TECH Software Omniscient Code Generator (Lite mode) build 49521"
   179  0000                     __CFG_CPD$OFF equ 0x0
   180                           opt subtitle "HI-TECH Software Omniscient Code Generator (Lite mode) build 49521"
   181  0000                     __CFG_CCPMX$RB0 equ 0x0
   182                           opt subtitle "HI-TECH Software Omniscient Code Generator (Lite mode) build 49521"
   183  0000                     __CFG_DEBUG$OFF equ 0x0
   184                           opt subtitle "HI-TECH Software Omniscient Code Generator (Lite mode) build 49521"
   185  0000                     __CFG_WRT$OFF equ 0x0
   186                           opt subtitle "HI-TECH Software Omniscient Code Generator (Lite mode) build 49521"
   187  0000                     __CFG_FOSC$INTOSCIO equ 0x0
   188                           opt subtitle "HI-TECH Software Omniscient Code Generator (Lite mode) build 49521"
   189  0000                     __CFG_MCLRE$OFF equ 0x0
   190                           opt subtitle "HI-TECH Software Omniscient Code Generator (Lite mode) build 49521"
   191  0000                     __CFG_WDTE$OFF equ 0x0
   192                           opt subtitle "HI-TECH Software Omniscient Code Generator (Lite mode) build 49521"
   193  0000                     __CFG_CP$OFF equ 0x0
   194                           opt subtitle "HI-TECH Software Omniscient Code Generator (Lite mode) build 49521"
   195  0000                     __CFG_LVP$OFF equ 0x0
   196                           opt subtitle "HI-TECH Software Omniscient Code Generator (Lite mode) build 49521"
   197  0000                     __CFG_PWRTE$OFF equ 0x0
   198                           opt subtitle "HI-TECH Software Omniscient Code Generator (Lite mode) build 49521"
   199  0000                     __CFG_IESO$OFF equ 0x0
   200                           opt subtitle "HI-TECH Software Omniscient Code Generator (Lite mode) build 49521"
   201  0000                     __CFG_FCMEN$OFF equ 0x0
   202                           opt subtitle "HI-TECH Software Omniscient Code Generator (Lite mode) build 49521"
   203                           
   204                           opt pagewidth 120
   205                           
   206  07D0                     start_initialization:
   207                           opt subtitle "HI-TECH Software Omniscient Code Generator (Lite mode) build 49521"
   208                           
   209  07D0                     __initialization:
   210                           opt subtitle "HI-TECH Software Omniscient Code Generator (Lite mode) build 49521"
   211                           
   212                           opt pagewidth 120
   213                           
   214                           	opt lm
   215  07D0                     end_of_initialization:
   216  07D0                     __end_of__initialization:clrf status
      + 07D0  0183               	clrf	3
   217  07D1  118A  2FDB         ljmp _main	;jump to C main() function
   218                           opt subtitle "HI-TECH Software Omniscient Code Generator (Lite mode) build 49521"
   219                           
   220  0070                     __pcstackCOMMON:
   221  0070                     ?_init:	; 0 bytes @ 0x0
   222  0070                     ??_init:	; 0 bytes @ 0x0
   223  0070                     ??_main:	; 0 bytes @ 0x0
   224  0070                     ?_main:	; 2 bytes @ 0x0
   225  0070                     	ds	3
   226                           opt subtitle "HI-TECH Software Omniscient Code Generator (Lite mode) build 49521"
   227                           
   228                           opt pagewidth 120
   229                           
   230                           	opt lm
   231                           
   232                           	processor	16F88
   233                           clrc	macro
   234                           	bcf	3,0
   235                           	endm
   236                           clrz	macro
   237                           	bcf	3,2
   238                           	endm
   239                           setc	macro
   240                           	bsf	3,0
   241                           	endm
   242                           setz	macro
   243                           	bsf	3,2
   244                           	endm
   245                           skipc	macro
   246                           	btfss	3,0
   247                           	endm
   248                           skipz	macro
   249                           	btfss	3,2
   250                           	endm
   251                           skipnc	macro
   252                           	btfsc	3,0
   253                           	endm
   254                           skipnz	macro
   255                           	btfsc	3,2
   256                           	endm
   257                           indf	equ	0
   258                           indf0	equ	0
   259                           pc	equ	2
   260                           pcl	equ	2
   261                           status	equ	3
   262                           fsr	equ	4
   263                           fsr0	equ	4
   264                           c	equ	1
   265                           z	equ	0
   266                           pclath	equ	10
   267                           # 46 "C:\Program Files (x86)\Microchip\xc8\v1.12\include\pic16f88.h"
   268                           INDF equ 00h ;# 
   269                           # 52 "C:\Program Files (x86)\Microchip\xc8\v1.12\include\pic16f88.h"
   270                           TMR0 equ 01h ;# 
   271                           # 58 "C:\Program Files (x86)\Microchip\xc8\v1.12\include\pic16f88.h"
   272                           PCL equ 02h ;# 
   273                           # 64 "C:\Program Files (x86)\Microchip\xc8\v1.12\include\pic16f88.h"
   274                           STATUS equ 03h ;# 
   275                           # 151 "C:\Program Files (x86)\Microchip\xc8\v1.12\include\pic16f88.h"
   276                           FSR equ 04h ;# 
   277                           # 157 "C:\Program Files (x86)\Microchip\xc8\v1.12\include\pic16f88.h"
   278                           PORTA equ 05h ;# 
   279                           # 218 "C:\Program Files (x86)\Microchip\xc8\v1.12\include\pic16f88.h"
   280                           PORTB equ 06h ;# 
   281                           # 279 "C:\Program Files (x86)\Microchip\xc8\v1.12\include\pic16f88.h"
   282                           PCLATH equ 0Ah ;# 
   283                           # 298 "C:\Program Files (x86)\Microchip\xc8\v1.12\include\pic16f88.h"
   284                           INTCON equ 0Bh ;# 
   285                           # 375 "C:\Program Files (x86)\Microchip\xc8\v1.12\include\pic16f88.h"
   286                           PIR1 equ 0Ch ;# 
   287                           # 430 "C:\Program Files (x86)\Microchip\xc8\v1.12\include\pic16f88.h"
   288                           PIR2 equ 0Dh ;# 
   289                           # 463 "C:\Program Files (x86)\Microchip\xc8\v1.12\include\pic16f88.h"
   290                           TMR1 equ 0Eh ;# 
   291                           # 469 "C:\Program Files (x86)\Microchip\xc8\v1.12\include\pic16f88.h"
   292                           TMR1L equ 0Eh ;# 
   293                           # 475 "C:\Program Files (x86)\Microchip\xc8\v1.12\include\pic16f88.h"
   294                           TMR1H equ 0Fh ;# 
   295                           # 481 "C:\Program Files (x86)\Microchip\xc8\v1.12\include\pic16f88.h"
   296                           T1CON equ 010h ;# 
   297                           # 552 "C:\Program Files (x86)\Microchip\xc8\v1.12\include\pic16f88.h"
   298                           TMR2 equ 011h ;# 
   299                           # 558 "C:\Program Files (x86)\Microchip\xc8\v1.12\include\pic16f88.h"
   300                           T2CON equ 012h ;# 
   301                           # 628 "C:\Program Files (x86)\Microchip\xc8\v1.12\include\pic16f88.h"
   302                           SSPBUF equ 013h ;# 
   303                           # 634 "C:\Program Files (x86)\Microchip\xc8\v1.12\include\pic16f88.h"
   304                           SSPCON equ 014h ;# 
   305                           # 703 "C:\Program Files (x86)\Microchip\xc8\v1.12\include\pic16f88.h"
   306                           CCPR1 equ 015h ;# 
   307                           # 709 "C:\Program Files (x86)\Microchip\xc8\v1.12\include\pic16f88.h"
   308                           CCPR1L equ 015h ;# 
   309                           # 715 "C:\Program Files (x86)\Microchip\xc8\v1.12\include\pic16f88.h"
   310                           CCPR1H equ 016h ;# 
   311                           # 721 "C:\Program Files (x86)\Microchip\xc8\v1.12\include\pic16f88.h"
   312                           CCP1CON equ 017h ;# 
   313                           # 778 "C:\Program Files (x86)\Microchip\xc8\v1.12\include\pic16f88.h"
   314                           RCSTA equ 018h ;# 
   315                           # 872 "C:\Program Files (x86)\Microchip\xc8\v1.12\include\pic16f88.h"
   316                           TXREG equ 019h ;# 
   317                           # 878 "C:\Program Files (x86)\Microchip\xc8\v1.12\include\pic16f88.h"
   318                           RCREG equ 01Ah ;# 
   319                           # 884 "C:\Program Files (x86)\Microchip\xc8\v1.12\include\pic16f88.h"
   320                           ADRESH equ 01Eh ;# 
   321                           # 890 "C:\Program Files (x86)\Microchip\xc8\v1.12\include\pic16f88.h"
   322                           ADCON0 equ 01Fh ;# 
   323                           # 985 "C:\Program Files (x86)\Microchip\xc8\v1.12\include\pic16f88.h"
   324                           OPTION_REG equ 081h ;# 
   325                           # 1054 "C:\Program Files (x86)\Microchip\xc8\v1.12\include\pic16f88.h"
   326                           TRISA equ 085h ;# 
   327                           # 1115 "C:\Program Files (x86)\Microchip\xc8\v1.12\include\pic16f88.h"
   328                           TRISB equ 086h ;# 
   329                           # 1176 "C:\Program Files (x86)\Microchip\xc8\v1.12\include\pic16f88.h"
   330                           PIE1 equ 08Ch ;# 
   331                           # 1231 "C:\Program Files (x86)\Microchip\xc8\v1.12\include\pic16f88.h"
   332                           PIE2 equ 08Dh ;# 
   333                           # 1264 "C:\Program Files (x86)\Microchip\xc8\v1.12\include\pic16f88.h"
   334                           PCON equ 08Eh ;# 
   335                           # 1297 "C:\Program Files (x86)\Microchip\xc8\v1.12\include\pic16f88.h"
   336                           OSCCON equ 08Fh ;# 
   337                           # 1367 "C:\Program Files (x86)\Microchip\xc8\v1.12\include\pic16f88.h"
   338                           OSCTUNE equ 090h ;# 
   339                           # 1424 "C:\Program Files (x86)\Microchip\xc8\v1.12\include\pic16f88.h"
   340                           PR2 equ 092h ;# 
   341                           # 1430 "C:\Program Files (x86)\Microchip\xc8\v1.12\include\pic16f88.h"
   342                           SSPADD equ 093h ;# 
   343                           # 1436 "C:\Program Files (x86)\Microchip\xc8\v1.12\include\pic16f88.h"
   344                           SSPSTAT equ 094h ;# 
   345                           # 1604 "C:\Program Files (x86)\Microchip\xc8\v1.12\include\pic16f88.h"
   346                           TXSTA equ 098h ;# 
   347                           # 1684 "C:\Program Files (x86)\Microchip\xc8\v1.12\include\pic16f88.h"
   348                           SPBRG equ 099h ;# 
   349                           # 1690 "C:\Program Files (x86)\Microchip\xc8\v1.12\include\pic16f88.h"
   350                           ANSEL equ 09Bh ;# 
   351                           # 1745 "C:\Program Files (x86)\Microchip\xc8\v1.12\include\pic16f88.h"
   352                           CMCON equ 09Ch ;# 
   353                           # 1814 "C:\Program Files (x86)\Microchip\xc8\v1.12\include\pic16f88.h"
   354                           CVRCON equ 09Dh ;# 
   355  07DB                     __pmaintext:	;psect for function _main
   356                           opt subtitle "HI-TECH Software Omniscient Code Generator (Lite mode) build 49521"
   357                           
   358                           opt pagewidth 120
   359                           
   360  0025                     	__size_of_main	equ	__end_of_main-_main
   361                           opt subtitle "HI-TECH Software Omniscient Code Generator (Lite mode) build 49521"
   362  07DB                     _main:	
   363                           opt subtitle "HI-TECH Software Omniscient Code Generator (Lite mode) build 49521"
   364                           
   365                           opt pagewidth 120
   366                           
   367  07DB                     l568:	
   368                           opt subtitle "HI-TECH Software Omniscient Code Generator (Lite mode) build 49521"
   369  07DB  118A  27D3  118A   	fcall	_init
   370  07DE  2FDF               	goto	l570
   371                           opt subtitle "HI-TECH Software Omniscient Code Generator (Lite mode) build 49521"
   372                           
   373                           opt pagewidth 120
   374  07DF                     l72:	
   375                           opt subtitle "HI-TECH Software Omniscient Code Generator (Lite mode) build 49521"
   376                           
   377  07DF                     l570:	
   378                           opt subtitle "HI-TECH Software Omniscient Code Generator (Lite mode) build 49521"
   379  07DF  1283               	bcf	status, 5	;RP0=0, select bank0
   380  07E0  1303               	bcf	status, 6	;RP1=0, select bank0
   381  07E1  1005               	bcf	(40/8),(40)&7	;volatile
   382                           opt subtitle "HI-TECH Software Omniscient Code Generator (Lite mode) build 49521"
   383                           
   384  07E2                     l572:	
   385                           opt subtitle "HI-TECH Software Omniscient Code Generator (Lite mode) build 49521"
   386  07E2  1085               	bcf	(41/8),(41)&7	;volatile
   387                           opt subtitle "HI-TECH Software Omniscient Code Generator (Lite mode) build 49521"
   388                           
   389  07E3                     l574:	
   390                           opt subtitle "HI-TECH Software Omniscient Code Generator (Lite mode) build 49521"
   391  07E3  1105               	bcf	(42/8),(42)&7	;volatile
   392                           opt subtitle "HI-TECH Software Omniscient Code Generator (Lite mode) build 49521"
   393                           
   394  07E4                     l576:	
   395                           opt subtitle "HI-TECH Software Omniscient Code Generator (Lite mode) build 49521"
   396  07E4  1185               	bcf	(43/8),(43)&7	;volatile
   397                           opt subtitle "HI-TECH Software Omniscient Code Generator (Lite mode) build 49521"
   398                           
   399  07E5                     l578:	
   400                           opt subtitle "HI-TECH Software Omniscient Code Generator (Lite mode) build 49521"
   401  07E5  1205               	bcf	(44/8),(44)&7	;volatile
   402                           opt subtitle "HI-TECH Software Omniscient Code Generator (Lite mode) build 49521"
   403                           
   404  07E6                     l580:	
   405                           opt subtitle "HI-TECH Software Omniscient Code Generator (Lite mode) build 49521"
   406  07E6  1285               	bcf	(45/8),(45)&7	;volatile
   407                           opt subtitle "HI-TECH Software Omniscient Code Generator (Lite mode) build 49521"
   408                           
   409  07E7                     l582:	
   410                           opt subtitle "HI-TECH Software Omniscient Code Generator (Lite mode) build 49521"
   411                           
   412  07E7  300B               movlw  11
   413  07E8  00F2               movwf	((??_main+0)+0+2),f
   414  07E9  3026               movlw	38
   415  07EA  00F1               movwf	((??_main+0)+0+1),f
   416  07EB  3066               	movlw	102
   417  07EC  00F0               movwf	((??_main+0)+0),f
   418  07ED                     u17:
   419  07ED  0BF0               	decfsz	((??_main+0)+0),f
   420  07EE  2FED               	goto	u17
   421  07EF  0BF1               	decfsz	((??_main+0)+0+1),f
   422  07F0  2FED               	goto	u17
   423  07F1  0BF2               	decfsz	((??_main+0)+0+2),f
   424  07F2  2FED               	goto	u17
   425  07F3  2FF4               	nop2
   426                           opt subtitle "HI-TECH Software Omniscient Code Generator (Lite mode) build 49521"
   427                           
   428                           opt pagewidth 120
   429                           
   430  07F4                     l584:	
   431                           opt subtitle "HI-TECH Software Omniscient Code Generator (Lite mode) build 49521"
   432  07F4  1283               	bcf	status, 5	;RP0=0, select bank0
   433  07F5  1303               	bcf	status, 6	;RP1=0, select bank0
   434  07F6  1405               	bsf	(40/8),(40)&7	;volatile
   435                           opt subtitle "HI-TECH Software Omniscient Code Generator (Lite mode) build 49521"
   436                           
   437  07F7                     l586:	
   438                           opt subtitle "HI-TECH Software Omniscient Code Generator (Lite mode) build 49521"
   439  07F7  1485               	bsf	(41/8),(41)&7	;volatile
   440                           opt subtitle "HI-TECH Software Omniscient Code Generator (Lite mode) build 49521"
   441                           
   442  07F8                     l588:	
   443                           opt subtitle "HI-TECH Software Omniscient Code Generator (Lite mode) build 49521"
   444  07F8  1505               	bsf	(42/8),(42)&7	;volatile
   445                           opt subtitle "HI-TECH Software Omniscient Code Generator (Lite mode) build 49521"
   446                           
   447  07F9                     l590:	
   448                           opt subtitle "HI-TECH Software Omniscient Code Generator (Lite mode) build 49521"
   449  07F9  1585               	bsf	(43/8),(43)&7	;volatile
   450                           opt subtitle "HI-TECH Software Omniscient Code Generator (Lite mode) build 49521"
   451                           
   452  07FA                     l592:	
   453                           opt subtitle "HI-TECH Software Omniscient Code Generator (Lite mode) build 49521"
   454  07FA  1605               	bsf	(44/8),(44)&7	;volatile
   455                           opt subtitle "HI-TECH Software Omniscient Code Generator (Lite mode) build 49521"
   456                           
   457  07FB                     l594:	
   458                           opt subtitle "HI-TECH Software Omniscient Code Generator (Lite mode) build 49521"
   459  07FB  1685               	bsf	(45/8),(45)&7	;volatile
   460  07FC  2FDF               	goto	l570
   461                           opt subtitle "HI-TECH Software Omniscient Code Generator (Lite mode) build 49521"
   462                           
   463  07FD                     l73:	
   464                           opt subtitle "HI-TECH Software Omniscient Code Generator (Lite mode) build 49521"
   465  07FD  2FDF               	goto	l570
   466                           opt subtitle "HI-TECH Software Omniscient Code Generator (Lite mode) build 49521"
   467  07FE                     l74:	
   468                           opt subtitle "HI-TECH Software Omniscient Code Generator (Lite mode) build 49521"
   469                           
   470  07FE                     l75:	
   471                           opt subtitle "HI-TECH Software Omniscient Code Generator (Lite mode) build 49521"
   472  07FE  118A  2800         	ljmp	start
   473                           opt subtitle "HI-TECH Software Omniscient Code Generator (Lite mode) build 49521"
   474                           
   475  0800                     	__end_of_main:
   476                           opt subtitle "HI-TECH Software Omniscient Code Generator (Lite mode) build 49521"
   477                           
   478                           opt pagewidth 120
   479                           
   480                           	opt lm
   481                           
   482                           	processor	16F88
   483                           clrc	macro
   484                           	bcf	3,0
   485                           	endm
   486                           clrz	macro
   487                           	bcf	3,2
   488                           	endm
   489                           setc	macro
   490                           	bsf	3,0
   491                           	endm
   492                           setz	macro
   493                           	bsf	3,2
   494                           	endm
   495                           skipc	macro
   496                           	btfss	3,0
   497                           	endm
   498                           skipz	macro
   499                           	btfss	3,2
   500                           	endm
   501                           skipnc	macro
   502                           	btfsc	3,0
   503                           	endm
   504                           skipnz	macro
   505                           	btfsc	3,2
   506                           	endm
   507                           indf	equ	0
   508                           indf0	equ	0
   509  07D3                     __ptext53:	;psect for function _init
   510                           opt subtitle "HI-TECH Software Omniscient Code Generator (Lite mode) build 49521"
   511                           
   512                           opt pagewidth 120
   513                           
   514  0008                     	__size_of_init	equ	__end_of_init-_init
   515                           opt subtitle "HI-TECH Software Omniscient Code Generator (Lite mode) build 49521"
   516  07D3                     _init:	
   517                           opt subtitle "HI-TECH Software Omniscient Code Generator (Lite mode) build 49521"
   518                           
   519                           opt pagewidth 120
   520                           
   521  07D3                     l532:	
   522                           opt subtitle "HI-TECH Software Omniscient Code Generator (Lite mode) build 49521"
   523  07D3  3060               	movlw	(060h)
   524  07D4  1683               	bsf	status, 5	;RP0=1, select bank1
   525  07D5  1303               	bcf	status, 6	;RP1=0, select bank1
   526  07D6  008F               	movwf	(143)^080h	;volatile
   527                           opt subtitle "HI-TECH Software Omniscient Code Generator (Lite mode) build 49521"
   528                           
   529  07D7                     l534:	
   530                           opt subtitle "HI-TECH Software Omniscient Code Generator (Lite mode) build 49521"
   531  07D7  0185               	clrf	(133)^080h	;volatile
   532                           opt subtitle "HI-TECH Software Omniscient Code Generator (Lite mode) build 49521"
   533                           
   534  07D8                     l536:	
   535                           opt subtitle "HI-TECH Software Omniscient Code Generator (Lite mode) build 49521"
   536  07D8  0186               	clrf	(134)^080h	;volatile
   537                           opt subtitle "HI-TECH Software Omniscient Code Generator (Lite mode) build 49521"
   538                           
   539  07D9                     l538:	
   540                           opt subtitle "HI-TECH Software Omniscient Code Generator (Lite mode) build 49521"
   541  07D9  019B               	clrf	(155)^080h	;volatile
   542                           opt subtitle "HI-TECH Software Omniscient Code Generator (Lite mode) build 49521"
   543                           
   544  07DA                     l27:	
   545  07DA  0008               	return
   546                           opt subtitle "HI-TECH Software Omniscient Code Generator (Lite mode) build 49521"
   547                           
   548  07DB                     	__end_of_init:
   549                           opt subtitle "HI-TECH Software Omniscient Code Generator (Lite mode) build 49521"
   550                           
   551                           opt pagewidth 120
   552  0000                     __ptext54:	;psect for function _init
   553                           opt subtitle "HI-TECH Software Omniscient Code Generator (Lite mode) build 49521"
   554  007E                     	btemp set 07Eh
   555                           opt subtitle "HI-TECH Software Omniscient Code Generator (Lite mode) build 49521"
   556                           
   557                           opt pagewidth 120
   558  007E                     	wtemp0 set btemp


Data Sizes:
    Strings     0
    Constant    0
    Data        0
    BSS         0
    Persistent  0
    Stack       0

Auto Spaces:
    Space          Size  Autos    Used
    COMMON           14      3       3
    BANK0            80      0       0
    BANK1            80      0       0
    BANK3            96      0       0
    BANK2            96      0       0

Pointer List with Targets:

    None.

Critical Paths under _main in COMMON

    None.

Critical Paths under _main in BANK0

    None.

Critical Paths under _main in BANK1

    None.

Critical Paths under _main in BANK3

    None.

Critical Paths under _main in BANK2

    None.

Call Graph Tables:

 ---------------------------------------------------------------------------------
 (Depth) Function   	        Calls       Base Space   Used Autos Params    Refs
 ---------------------------------------------------------------------------------
 (0) _main                                                 3     3      0       0
                                              0 COMMON     3     3      0
                               _init
 ---------------------------------------------------------------------------------
 (1) _init                                                 0     0      0       0
 ---------------------------------------------------------------------------------
 Estimated maximum stack depth 1
 ---------------------------------------------------------------------------------

 Call Graph Graphs:

 _main (ROOT)
   _init

 Address spaces:
Name               Size   Autos  Total    Cost      Usage
BITCOMMON            E      0       0       0        0.0%
EEDATA             100      0       0       0        0.0%
NULL                 0      0       0       0        0.0%
CODE                 0      0       0       0        0.0%
COMMON               E      3       3       1       21.4%
BITSFR0              0      0       0       1        0.0%
SFR0                 0      0       0       1        0.0%
BITSFR1              0      0       0       2        0.0%
SFR1                 0      0       0       2        0.0%
STACK                0      0       1       2        0.0%
ABS                  0      0       0       3        0.0%
BITBANK0            50      0       0       4        0.0%
BITSFR3              0      0       0       4        0.0%
SFR3                 0      0       0       4        0.0%
BANK0               50      0       0       5        0.0%
BITSFR2              0      0       0       5        0.0%
SFR2                 0      0       0       5        0.0%
BITBANK1            50      0       0       6        0.0%
BANK1               50      0       0       7        0.0%
BITBANK3            60      0       0       8        0.0%
BANK3               60      0       0       9        0.0%
BITBANK2            60      0       0      10        0.0%
BANK2               60      0       0      11        0.0%
DATA                 0      0       0      12        0.0%


Microchip Technology PIC Macro Assembler V1.12 build 49521 
Symbol Table                                                                                   Thu Feb 21 18:38:58 2013

            __CFG_CP$OFF 0000                       l27 07DA                       l72 07DF  
                     l73 07FD                       l74 07FE                       l75 07FE  
                     u17 07ED                      l532 07D3                      l534 07D7  
                    l536 07D8                      l538 07D9                      l570 07DF  
                    l580 07E6                      l572 07E2                      l590 07F9  
                    l582 07E7                      l574 07E3                      l592 07FA  
                    l584 07F4                      l576 07E4                      l568 07DB  
                    l594 07FB                      l586 07F7                      l578 07E5  
                    l588 07F8                      _RA0 0028                      _RA1 0029  
                    _RA2 002A                      _RA3 002B                      _RA4 002C  
                    _RA5 002D                      _RA6 002E             __CFG_CPD$OFF 0000  
           __CFG_LVP$OFF 0000             __CFG_WRT$OFF 0000                     _main 07DB  
                   _init 07D3                     btemp 007E                     start 0000  
          __CFG_IESO$OFF 0000                    ?_main 0070                    ?_init 0070  
          __CFG_WDTE$OFF 0000                    _ANSEL 009B           __CFG_DEBUG$OFF 0000  
                  _TRISA 0085                    _TRISB 0086           __CFG_CCPMX$RB0 0000  
         __CFG_FCMEN$OFF 0000           __CFG_BOREN$OFF 0000                    status 0003  
                  wtemp0 007E           __CFG_MCLRE$OFF 0000          __initialization 07D0  
           __end_of_main 0800             __end_of_init 07DB                   ??_main 0070  
                 ??_init 0070                   _OSCCON 008F           __CFG_PWRTE$OFF 0000  
__end_of__initialization 07D0           __pcstackCOMMON 0070               __pmaintext 07DB  
   end_of_initialization 07D0      start_initialization 07D0                 __ptext52 0000  
               __ptext53 07D3                 __ptext54 0000            __size_of_main 0025  
          __size_of_init 0008       __CFG_FOSC$INTOSCIO 0000  
